target datalayout = "e-m:e-p270:32:32-p271:32:32-p272:64:64-i64:64-i128:128-f80:128-n8:16:32:64-S128"
target triple = "x86_64-pc-linux-gnu"

%"class.llvm::SmallVectorBase" = type { ptr, i32, i32 }
%"class.llvm::SmallPtrSetImplBase.base" = type <{ ptr, ptr, i32, i32, i32 }>
%"class.std::_Function_base" = type { %"union.std::_Any_data", ptr }
%"union.std::_Any_data" = type { %"union.std::_Nocopy_types" }
%"union.std::_Nocopy_types" = type { { i64, i64 } }
%"class.llvm::ilist_iterator_w_bits" = type <{ ptr, i8, i8, [6 x i8] }>
%"class.llvm::Twine" = type <{ %"union.llvm::Twine::Child", %"union.llvm::Twine::Child", i8, i8, [6 x i8] }>
%"union.llvm::Twine::Child" = type { %struct.anon }
%struct.anon = type { ptr, i64 }
%"class.llvm::SCEVExpander" = type { ptr, ptr, ptr, i8, [7 x i8], %"class.llvm::DenseMap", %"class.llvm::DenseSet", %"class.llvm::DenseSet", %"class.llvm::SmallPtrSet.3", %"class.llvm::DenseMap.6", %"class.llvm::SmallVector.9", %"class.llvm::DenseMap.14", %"class.llvm::SmallPtrSet.17", ptr, ptr, %"class.llvm::DenseSet.20", i8, i8, %"class.llvm::IRBuilder", %"class.llvm::SmallVector.33", ptr }
%"class.llvm::DenseMap" = type <{ ptr, i32, i32, i32, [4 x i8] }>
%"class.llvm::DenseSet" = type { %"class.llvm::detail::DenseSetImpl" }
%"class.llvm::detail::DenseSetImpl" = type { %"class.llvm::DenseMap.0" }
%"class.llvm::DenseMap.0" = type <{ ptr, i32, i32, i32, [4 x i8] }>
%"class.llvm::SmallPtrSet.3" = type { %"class.llvm::SmallPtrSetImpl.base.5", [16 x ptr] }
%"class.llvm::SmallPtrSetImpl.base.5" = type { %"class.llvm::SmallPtrSetImplBase.base" }
%"class.llvm::DenseMap.6" = type <{ ptr, i32, i32, i32, [4 x i8] }>
%"class.llvm::SmallVector.9" = type { %"class.llvm::SmallVectorImpl.10", %"struct.llvm::SmallVectorStorage.13" }
%"class.llvm::SmallVectorImpl.10" = type { %"class.llvm::SmallVectorTemplateBase.11" }
%"class.llvm::SmallVectorTemplateBase.11" = type { %"class.llvm::SmallVectorTemplateCommon.12" }
%"class.llvm::SmallVectorTemplateCommon.12" = type { %"class.llvm::SmallVectorBase" }
%"struct.llvm::SmallVectorStorage.13" = type { [48 x i8] }
%"class.llvm::DenseMap.14" = type <{ ptr, i32, i32, i32, [4 x i8] }>
%"class.llvm::SmallPtrSet.17" = type { %"class.llvm::SmallPtrSetImpl.base.19", [2 x ptr] }
%"class.llvm::SmallPtrSetImpl.base.19" = type { %"class.llvm::SmallPtrSetImplBase.base" }
%"class.llvm::DenseSet.20" = type { %"class.llvm::detail::DenseSetImpl.21" }
%"class.llvm::detail::DenseSetImpl.21" = type { %"class.llvm::DenseMap.22" }
%"class.llvm::DenseMap.22" = type <{ ptr, i32, i32, i32, [4 x i8] }>
%"class.llvm::IRBuilder" = type { %"class.llvm::IRBuilderBase", %"class.llvm::InstSimplifyFolder", %"class.llvm::IRBuilderCallbackInserter" }
%"class.llvm::IRBuilderBase" = type { %"class.llvm::SmallVector.25", ptr, %"class.llvm::ilist_iterator_w_bits", ptr, ptr, ptr, ptr, %"class.llvm::FastMathFlags", i8, i8, i8, %"class.llvm::ArrayRef" }
%"class.llvm::SmallVector.25" = type { %"class.llvm::SmallVectorImpl.26", %"struct.llvm::SmallVectorStorage.29" }
%"class.llvm::SmallVectorImpl.26" = type { %"class.llvm::SmallVectorTemplateBase.27" }
%"class.llvm::SmallVectorTemplateBase.27" = type { %"class.llvm::SmallVectorTemplateCommon.28" }
%"class.llvm::SmallVectorTemplateCommon.28" = type { %"class.llvm::SmallVectorBase" }
%"struct.llvm::SmallVectorStorage.29" = type { [32 x i8] }
%"class.llvm::FastMathFlags" = type { i32 }
%"class.llvm::ArrayRef" = type { ptr, i64 }
%"class.llvm::InstSimplifyFolder" = type { %"class.llvm::IRBuilderFolder", %"class.llvm::TargetFolder", %"struct.llvm::SimplifyQuery" }
%"class.llvm::IRBuilderFolder" = type { ptr }
%"class.llvm::TargetFolder" = type { %"class.llvm::IRBuilderFolder", ptr }
%"struct.llvm::SimplifyQuery" = type <{ ptr, ptr, ptr, ptr, ptr, ptr, ptr, %"struct.llvm::InstrInfoQuery", i8, [6 x i8] }>
%"struct.llvm::InstrInfoQuery" = type { i8 }
%"class.llvm::IRBuilderCallbackInserter" = type { %"class.llvm::IRBuilderDefaultInserter", %"class.std::function.30" }
%"class.llvm::IRBuilderDefaultInserter" = type { ptr }
%"class.std::function.30" = type { %"class.std::_Function_base", ptr }
%"class.llvm::SmallVector.33" = type { %"class.llvm::SmallVectorImpl.34", %"struct.llvm::SmallVectorStorage.37" }
%"class.llvm::SmallVectorImpl.34" = type { %"class.llvm::SmallVectorTemplateBase.35" }
%"class.llvm::SmallVectorTemplateBase.35" = type { %"class.llvm::SmallVectorTemplateCommon.36" }
%"class.llvm::SmallVectorTemplateCommon.36" = type { %"class.llvm::SmallVectorBase" }
%"struct.llvm::SmallVectorStorage.37" = type { [64 x i8] }
%"class.llvm::FoldingSetBase::Node" = type { ptr }
%"class.llvm::FoldingSetNodeIDRef" = type { ptr, i64 }
%"class.llvm::SCEVPredicate" = type <{ ptr, %"class.llvm::FoldingSetBase::Node", %"class.llvm::FoldingSetNodeIDRef", i32, [4 x i8] }>
%"class.llvm::SCEVComparePredicate" = type { %"class.llvm::SCEVPredicate.base", i32, ptr, ptr }
%"class.llvm::SCEVPredicate.base" = type <{ ptr, %"class.llvm::FoldingSetBase::Node", %"class.llvm::FoldingSetNodeIDRef", i32 }>

@.str.12 = private unnamed_addr constant [12 x i8] c"ident.check\00", align 1

; Function Attrs: mustprogress nounwind uwtable
define linkonce_odr hidden noundef ptr @_ZN4llvm16cast_convert_valINS_17SCEVWrapPredicateEPKNS_13SCEVPredicateES4_E4doitES4_(ptr noundef %0) #1 comdat align 2 {
  %2 = alloca ptr, align 8
  store ptr %0, ptr %2, align 8
  %3 = load ptr, ptr %2, align 8
  ret ptr %3
}

; Function Attrs: mustprogress nounwind uwtable
define linkonce_odr hidden void @_ZN4llvm12SCEVExpander14setInsertPointEPNS_11InstructionE(ptr noundef nonnull align 8 dereferenceable(816) %0, ptr noundef %1) #1 comdat align 2 {
  %3 = alloca ptr, align 8
  %4 = alloca ptr, align 8
  store ptr %0, ptr %3, align 8
  store ptr %1, ptr %4, align 8
  %5 = load ptr, ptr %3, align 8
  %6 = getelementptr inbounds nuw %"class.llvm::SCEVExpander", ptr %5, i32 0, i32 18
  %7 = load ptr, ptr %4, align 8
  call void @_ZN4llvm13IRBuilderBase14SetInsertPointEPNS_11InstructionE(ptr noundef nonnull align 8 dereferenceable(128) %6, ptr noundef %7)
  ret void
}

; Function Attrs: mustprogress nounwind uwtable
define linkonce_odr hidden noundef ptr @_ZN4llvm16cast_convert_valINS_20SCEVComparePredicateEPKNS_13SCEVPredicateES4_E4doitES4_(ptr noundef %0) #1 comdat align 2 {
  %2 = alloca ptr, align 8
  store ptr %0, ptr %2, align 8
  %3 = load ptr, ptr %2, align 8
  ret ptr %3
}

; Function Attrs: mustprogress nounwind uwtable
define linkonce_odr hidden noundef ptr @_ZN4llvm16cast_convert_valINS_18SCEVUnionPredicateEPKNS_13SCEVPredicateES4_E4doitES4_(ptr noundef %0) #1 comdat align 2 {
  %2 = alloca ptr, align 8
  store ptr %0, ptr %2, align 8
  %3 = load ptr, ptr %2, align 8
  ret ptr %3
}

; Function Attrs: mustprogress nounwind uwtable
define linkonce_odr hidden noundef ptr @_ZN4llvm8CastInfoINS_17SCEVWrapPredicateEPKNS_13SCEVPredicateEvE6doCastERKS4_(ptr noundef nonnull align 8 dereferenceable(8) %0) #1 comdat align 2 {
  %2 = alloca ptr, align 8
  store ptr %0, ptr %2, align 8
  %3 = load ptr, ptr %2, align 8
  %4 = load ptr, ptr %3, align 8
  %5 = call noundef ptr @_ZN4llvm16cast_convert_valINS_17SCEVWrapPredicateEPKNS_13SCEVPredicateES4_E4doitES4_(ptr noundef %4)
  ret ptr %5
}

; Function Attrs: mustprogress nounwind uwtable
define linkonce_odr hidden void @_ZN4llvm5TwineC2EPKc(ptr noundef nonnull align 8 dereferenceable(34) %0, ptr noundef %1) unnamed_addr #1 comdat align 2 {
  %3 = alloca ptr, align 8
  %4 = alloca ptr, align 8
  store ptr %0, ptr %3, align 8
  store ptr %1, ptr %4, align 8
  %5 = load ptr, ptr %3, align 8
  %6 = getelementptr inbounds nuw %"class.llvm::Twine", ptr %5, i32 0, i32 2
  store i8 1, ptr %6, align 8
  %7 = getelementptr inbounds nuw %"class.llvm::Twine", ptr %5, i32 0, i32 3
  store i8 1, ptr %7, align 1
  %8 = load ptr, ptr %4, align 8
  %9 = getelementptr inbounds i8, ptr %8, i64 0
  %10 = load i8, ptr %9, align 1
  %11 = sext i8 %10 to i32
  %12 = icmp ne i32 %11, 0
  br i1 %12, label %13, label %17

13:                                               ; preds = %2
  %14 = load ptr, ptr %4, align 8
  %15 = getelementptr inbounds nuw %"class.llvm::Twine", ptr %5, i32 0, i32 0
  store ptr %14, ptr %15, align 8
  %16 = getelementptr inbounds nuw %"class.llvm::Twine", ptr %5, i32 0, i32 2
  store i8 3, ptr %16, align 8
  br label %19

17:                                               ; preds = %2
  %18 = getelementptr inbounds nuw %"class.llvm::Twine", ptr %5, i32 0, i32 2
  store i8 1, ptr %18, align 8
  br label %19

19:                                               ; preds = %17, %13
  ret void
}

; Function Attrs: mustprogress nounwind uwtable
define linkonce_odr hidden noundef i32 @_ZNK4llvm20SCEVComparePredicate12getPredicateEv(ptr noundef nonnull align 8 dereferenceable(56) %0) #1 comdat align 2 {
  %2 = alloca ptr, align 8
  store ptr %0, ptr %2, align 8
  %3 = load ptr, ptr %2, align 8
  %4 = getelementptr inbounds nuw %"class.llvm::SCEVComparePredicate", ptr %3, i32 0, i32 1
  %5 = load i32, ptr %4, align 4
  ret i32 %5
}

; Function Attrs: mustprogress nounwind uwtable
define linkonce_odr hidden noundef ptr @_ZNK4llvm20SCEVComparePredicate6getRHSEv(ptr noundef nonnull align 8 dereferenceable(56) %0) #1 comdat align 2 {
  %2 = alloca ptr, align 8
  store ptr %0, ptr %2, align 8
  %3 = load ptr, ptr %2, align 8
  %4 = getelementptr inbounds nuw %"class.llvm::SCEVComparePredicate", ptr %3, i32 0, i32 3
  %5 = load ptr, ptr %4, align 8
  ret ptr %5
}

; Function Attrs: mustprogress nounwind uwtable
define linkonce_odr hidden noundef ptr @_ZN4llvm12SCEVExpander6expandEPKNS_4SCEVEPNS_11InstructionE(ptr noundef nonnull align 8 dereferenceable(816) %0, ptr noundef %1, ptr noundef %2) #1 comdat align 2 {
  %4 = alloca ptr, align 8
  %5 = alloca ptr, align 8
  %6 = alloca ptr, align 8
  store ptr %0, ptr %4, align 8
  store ptr %1, ptr %5, align 8
  store ptr %2, ptr %6, align 8
  %7 = load ptr, ptr %4, align 8
  %8 = load ptr, ptr %6, align 8
  call void @_ZN4llvm12SCEVExpander14setInsertPointEPNS_11InstructionE(ptr noundef nonnull align 8 dereferenceable(816) %7, ptr noundef %8)
  %9 = load ptr, ptr %5, align 8
  %10 = call noundef ptr @_ZN4llvm12SCEVExpander6expandEPKNS_4SCEVE(ptr noundef nonnull align 8 dereferenceable(816) %7, ptr noundef %9)
  ret ptr %10
}

; Function Attrs: mustprogress nounwind uwtable
define linkonce_odr hidden noundef ptr @_ZNK4llvm20SCEVComparePredicate6getLHSEv(ptr noundef nonnull align 8 dereferenceable(56) %0) #1 comdat align 2 {
  %2 = alloca ptr, align 8
  store ptr %0, ptr %2, align 8
  %3 = load ptr, ptr %2, align 8
  %4 = getelementptr inbounds nuw %"class.llvm::SCEVComparePredicate", ptr %3, i32 0, i32 2
  %5 = load ptr, ptr %4, align 8
  ret ptr %5
}

; Function Attrs: mustprogress nounwind uwtable
define linkonce_odr hidden noundef ptr @_ZN4llvm8CastInfoINS_20SCEVComparePredicateEPKNS_13SCEVPredicateEvE6doCastERKS4_(ptr noundef nonnull align 8 dereferenceable(8) %0) #1 comdat align 2 {
  %2 = alloca ptr, align 8
  store ptr %0, ptr %2, align 8
  %3 = load ptr, ptr %2, align 8
  %4 = load ptr, ptr %3, align 8
  %5 = call noundef ptr @_ZN4llvm16cast_convert_valINS_20SCEVComparePredicateEPKNS_13SCEVPredicateES4_E4doitES4_(ptr noundef %4)
  ret ptr %5
}

; Function Attrs: mustprogress nounwind uwtable
define linkonce_odr hidden noundef ptr @_ZN4llvm8CastInfoINS_18SCEVUnionPredicateEPKNS_13SCEVPredicateEvE6doCastERKS4_(ptr noundef nonnull align 8 dereferenceable(8) %0) #1 comdat align 2 {
  %2 = alloca ptr, align 8
  store ptr %0, ptr %2, align 8
  %3 = load ptr, ptr %2, align 8
  %4 = load ptr, ptr %3, align 8
  %5 = call noundef ptr @_ZN4llvm16cast_convert_valINS_18SCEVUnionPredicateEPKNS_13SCEVPredicateES4_E4doitES4_(ptr noundef %4)
  ret ptr %5
}

; Function Attrs: mustprogress nounwind uwtable
define linkonce_odr hidden noundef ptr @_ZN4llvm4castINS_17SCEVWrapPredicateEKNS_13SCEVPredicateEEEDcPT0_(ptr noundef %0) #1 comdat {
  %2 = alloca ptr, align 8
  store ptr %0, ptr %2, align 8
  %3 = call noundef ptr @_ZN4llvm8CastInfoINS_17SCEVWrapPredicateEPKNS_13SCEVPredicateEvE6doCastERKS4_(ptr noundef nonnull align 8 dereferenceable(8) %2)
  ret ptr %3
}

; Function Attrs: mustprogress nounwind uwtable
define dso_local noundef ptr @_ZN4llvm12SCEVExpander22expandComparePredicateEPKNS_20SCEVComparePredicateEPNS_11InstructionE(ptr noundef nonnull align 8 dereferenceable(816) %0, ptr noundef %1, ptr noundef %2) #1 align 2 {
  %4 = alloca ptr, align 8
  %5 = alloca ptr, align 8
  %6 = alloca ptr, align 8
  %7 = alloca ptr, align 8
  %8 = alloca ptr, align 8
  %9 = alloca i32, align 4
  %10 = alloca ptr, align 8
  %11 = alloca %"class.llvm::Twine", align 8
  store ptr %0, ptr %4, align 8
  store ptr %1, ptr %5, align 8
  store ptr %2, ptr %6, align 8
  %12 = load ptr, ptr %4, align 8
  %13 = load ptr, ptr %5, align 8
  %14 = call noundef ptr @_ZNK4llvm20SCEVComparePredicate6getLHSEv(ptr noundef nonnull align 8 dereferenceable(56) %13)
  %15 = load ptr, ptr %6, align 8
  %16 = call noundef ptr @_ZN4llvm12SCEVExpander6expandEPKNS_4SCEVEPNS_11InstructionE(ptr noundef nonnull align 8 dereferenceable(816) %12, ptr noundef %14, ptr noundef %15)
  store ptr %16, ptr %7, align 8
  %17 = load ptr, ptr %5, align 8
  %18 = call noundef ptr @_ZNK4llvm20SCEVComparePredicate6getRHSEv(ptr noundef nonnull align 8 dereferenceable(56) %17)
  %19 = load ptr, ptr %6, align 8
  %20 = call noundef ptr @_ZN4llvm12SCEVExpander6expandEPKNS_4SCEVEPNS_11InstructionE(ptr noundef nonnull align 8 dereferenceable(816) %12, ptr noundef %18, ptr noundef %19)
  store ptr %20, ptr %8, align 8
  %21 = getelementptr inbounds nuw %"class.llvm::SCEVExpander", ptr %12, i32 0, i32 18
  %22 = load ptr, ptr %6, align 8
  call void @_ZN4llvm13IRBuilderBase14SetInsertPointEPNS_11InstructionE(ptr noundef nonnull align 8 dereferenceable(128) %21, ptr noundef %22)
  %23 = load ptr, ptr %5, align 8
  %24 = call noundef i32 @_ZNK4llvm20SCEVComparePredicate12getPredicateEv(ptr noundef nonnull align 8 dereferenceable(56) %23)
  %25 = call noundef i32 @_ZN4llvm7CmpInst19getInversePredicateENS0_9PredicateE(i32 noundef %24)
  store i32 %25, ptr %9, align 4
  %26 = getelementptr inbounds nuw %"class.llvm::SCEVExpander", ptr %12, i32 0, i32 18
  %27 = load i32, ptr %9, align 4
  %28 = load ptr, ptr %7, align 8
  %29 = load ptr, ptr %8, align 8
  call void @_ZN4llvm5TwineC2EPKc(ptr noundef nonnull align 8 dereferenceable(34) %11, ptr noundef @.str.12)
  %30 = call noundef ptr @_ZN4llvm13IRBuilderBase10CreateICmpENS_7CmpInst9PredicateEPNS_5ValueES4_RKNS_5TwineE(ptr noundef nonnull align 8 dereferenceable(128) %26, i32 noundef %27, ptr noundef %28, ptr noundef %29, ptr noundef nonnull align 8 dereferenceable(34) %11)
  store ptr %30, ptr %10, align 8
  %31 = load ptr, ptr %10, align 8
  ret ptr %31
}

; Function Attrs: mustprogress nounwind uwtable
define linkonce_odr hidden noundef ptr @_ZN4llvm4castINS_20SCEVComparePredicateEKNS_13SCEVPredicateEEEDcPT0_(ptr noundef %0) #1 comdat {
  %2 = alloca ptr, align 8
  store ptr %0, ptr %2, align 8
  %3 = call noundef ptr @_ZN4llvm8CastInfoINS_20SCEVComparePredicateEPKNS_13SCEVPredicateEvE6doCastERKS4_(ptr noundef nonnull align 8 dereferenceable(8) %2)
  ret ptr %3
}

; Function Attrs: mustprogress nounwind uwtable
define linkonce_odr hidden noundef ptr @_ZN4llvm4castINS_18SCEVUnionPredicateEKNS_13SCEVPredicateEEEDcPT0_(ptr noundef %0) #1 comdat {
  %2 = alloca ptr, align 8
  store ptr %0, ptr %2, align 8
  %3 = call noundef ptr @_ZN4llvm8CastInfoINS_18SCEVUnionPredicateEPKNS_13SCEVPredicateEvE6doCastERKS4_(ptr noundef nonnull align 8 dereferenceable(8) %2)
  ret ptr %3
}

; Function Attrs: mustprogress nounwind uwtable
define linkonce_odr hidden noundef i32 @_ZNK4llvm13SCEVPredicate7getKindEv(ptr noundef nonnull align 8 dereferenceable(36) %0) #1 comdat align 2 {
  %2 = alloca ptr, align 8
  store ptr %0, ptr %2, align 8
  %3 = load ptr, ptr %2, align 8
  %4 = getelementptr inbounds nuw %"class.llvm::SCEVPredicate", ptr %3, i32 0, i32 3
  %5 = load i32, ptr %4, align 8
  ret i32 %5
}

; Function Attrs: mustprogress nounwind uwtable
define dso_local noundef ptr @_ZN4llvm12SCEVExpander22expandCodeForPredicateEPKNS_13SCEVPredicateEPNS_11InstructionE(ptr noundef nonnull align 8 dereferenceable(816) %0, ptr noundef %1, ptr noundef %2) #1 align 2 {
  %4 = alloca ptr, align 8
  %5 = alloca ptr, align 8
  %6 = alloca ptr, align 8
  %7 = alloca ptr, align 8
  %8 = alloca ptr, align 8
  store ptr %0, ptr %5, align 8
  store ptr %1, ptr %6, align 8
  store ptr %2, ptr %7, align 8
  %9 = load ptr, ptr %5, align 8
  %10 = load ptr, ptr %6, align 8
  %11 = call noundef i32 @_ZNK4llvm13SCEVPredicate7getKindEv(ptr noundef nonnull align 8 dereferenceable(36) %10)
  switch i32 %11, label %28 [
    i32 0, label %12
    i32 1, label %17
    i32 2, label %22
  ]

12:                                               ; preds = %3
  %13 = load ptr, ptr %6, align 8
  %14 = call noundef ptr @_ZN4llvm4castINS_18SCEVUnionPredicateEKNS_13SCEVPredicateEEEDcPT0_(ptr noundef %13)
  %15 = load ptr, ptr %7, align 8
  %16 = call noundef ptr @_ZN4llvm12SCEVExpander20expandUnionPredicateEPKNS_18SCEVUnionPredicateEPNS_11InstructionE(ptr noundef nonnull align 8 dereferenceable(816) %9, ptr noundef %14, ptr noundef %15)
  store ptr %16, ptr %4, align 8
  br label %29

17:                                               ; preds = %3
  %18 = load ptr, ptr %6, align 8
  %19 = call noundef ptr @_ZN4llvm4castINS_20SCEVComparePredicateEKNS_13SCEVPredicateEEEDcPT0_(ptr noundef %18)
  %20 = load ptr, ptr %7, align 8
  %21 = call noundef ptr @_ZN4llvm12SCEVExpander22expandComparePredicateEPKNS_20SCEVComparePredicateEPNS_11InstructionE(ptr noundef nonnull align 8 dereferenceable(816) %9, ptr noundef %19, ptr noundef %20)
  store ptr %21, ptr %4, align 8
  br label %29

22:                                               ; preds = %3
  %23 = load ptr, ptr %6, align 8
  %24 = call noundef ptr @_ZN4llvm4castINS_17SCEVWrapPredicateEKNS_13SCEVPredicateEEEDcPT0_(ptr noundef %23)
  store ptr %24, ptr %8, align 8
  %25 = load ptr, ptr %8, align 8
  %26 = load ptr, ptr %7, align 8
  %27 = call noundef ptr @_ZN4llvm12SCEVExpander19expandWrapPredicateEPKNS_17SCEVWrapPredicateEPNS_11InstructionE(ptr noundef nonnull align 8 dereferenceable(816) %9, ptr noundef %25, ptr noundef %26)
  store ptr %27, ptr %4, align 8
  br label %29

28:                                               ; preds = %3
  unreachable

29:                                               ; preds = %22, %17, %12
  %30 = load ptr, ptr %4, align 8
  ret ptr %30
}