; Function Attrs: mustprogress nounwind uwtable
define dso_local noundef ptr @_ZN4llvm12SCEVExpander22expandCodeForPredicateEPKNS_13SCEVPredicateEPNS_11InstructionE(ptr noundef nonnull align 8 dereferenceable(816) %0, ptr noundef %1, ptr noundef %2) local_unnamed_addr #0 align 2 {
  %4 = alloca %"class.llvm::Twine", align 8
  %5 = getelementptr inbounds nuw i8, ptr %1, i64 32
  %6 = load i32, ptr %5, align 8
  switch i32 %6, label %25 [
    i32 0, label %7
    i32 1, label %9
    i32 2, label %23
  ]

7:                                                ; preds = %3
  %8 = tail call noundef ptr @_ZN4llvm12SCEVExpander20expandUnionPredicateEPKNS_18SCEVUnionPredicateEPNS_11InstructionE(ptr noundef nonnull align 8 dereferenceable(816) %0, ptr noundef nonnull %1, ptr noundef %2)
  br label %26

9:                                                ; preds = %3
  call void @llvm.lifetime.start.p0(i64 40, ptr nonnull %4)
  %10 = getelementptr inbounds nuw i8, ptr %1, i64 40
  %11 = load ptr, ptr %10, align 8
  %12 = getelementptr inbounds nuw i8, ptr %0, i64 472
  tail call void @_ZN4llvm13IRBuilderBase14SetInsertPointEPNS_11InstructionE(ptr noundef nonnull align 8 dereferenceable(128) %12, ptr noundef %2)
  %13 = tail call noundef ptr @_ZN4llvm12SCEVExpander6expandEPKNS_4SCEVE(ptr noundef nonnull align 8 dereferenceable(816) %0, ptr noundef %11)
  %14 = getelementptr inbounds nuw i8, ptr %1, i64 48
  %15 = load ptr, ptr %14, align 8
  tail call void @_ZN4llvm13IRBuilderBase14SetInsertPointEPNS_11InstructionE(ptr noundef nonnull align 8 dereferenceable(128) %12, ptr noundef %2)
  %16 = tail call noundef ptr @_ZN4llvm12SCEVExpander6expandEPKNS_4SCEVE(ptr noundef nonnull align 8 dereferenceable(816) %0, ptr noundef %15)
  tail call void @_ZN4llvm13IRBuilderBase14SetInsertPointEPNS_11InstructionE(ptr noundef nonnull align 8 dereferenceable(128) %12, ptr noundef %2)
  %17 = getelementptr inbounds nuw i8, ptr %1, i64 36
  %18 = load i32, ptr %17, align 4
  %19 = tail call noundef i32 @_ZN4llvm7CmpInst19getInversePredicateENS0_9PredicateE(i32 noundef %18) #18
  %20 = getelementptr inbounds nuw i8, ptr %4, i64 32
  %21 = getelementptr inbounds nuw i8, ptr %4, i64 33
  store i8 1, ptr %21, align 1
  store ptr @.str.12, ptr %4, align 8
  store i8 3, ptr %20, align 8
  %22 = call noundef ptr @_ZN4llvm13IRBuilderBase10CreateICmpENS_7CmpInst9PredicateEPNS_5ValueES4_RKNS_5TwineE(ptr noundef nonnull align 8 dereferenceable(128) %12, i32 noundef %19, ptr noundef %13, ptr noundef %16, ptr noundef nonnull align 8 dereferenceable(34) %4)
  call void @llvm.lifetime.end.p0(i64 40, ptr nonnull %4)
  br label %26

23:                                               ; preds = %3
  %24 = tail call noundef ptr @_ZN4llvm12SCEVExpander19expandWrapPredicateEPKNS_17SCEVWrapPredicateEPNS_11InstructionE(ptr noundef nonnull align 8 dereferenceable(816) %0, ptr noundef %1, ptr noundef %2)
  br label %26

25:                                               ; preds = %3
  unreachable

26:                                               ; preds = %23, %9, %7
  %.0 = phi ptr [ %24, %23 ], [ %22, %9 ], [ %8, %7 ]
  ret ptr %.0
}